; Function Attrs: nounwind uwtable
define internal noundef i32 @lc3_write_packet(ptr noundef readonly captures(none) %0, ptr noundef readonly captures(none) %1) #1 {
  %3 = getelementptr inbounds nuw i8, ptr %0, i64 32
  %4 = load ptr, ptr %3, align 8, !tbaa !28
  %5 = getelementptr inbounds nuw i8, ptr %1, i64 32
  %6 = load i32, ptr %5, align 8, !tbaa !66
  tail call void @avio_wl16(ptr noundef %4, i32 noundef %6) #5
  %7 = load ptr, ptr %3, align 8, !tbaa !28
  %8 = getelementptr inbounds nuw i8, ptr %1, i64 24
  %9 = load ptr, ptr %8, align 8, !tbaa !67
  %10 = load i32, ptr %5, align 8, !tbaa !66
  tail call void @avio_write(ptr noundef %7, ptr noundef %9, i32 noundef %10) #5
  ret i32 0
}